target datalayout = "e-m:e-p270:32:32-p271:32:32-p272:64:64-i64:64-i128:128-f80:128-n8:16:32:64-S128"
target triple = "x86_64-pc-linux-gnu"

%struct.mbedtls_ecp_group = type { i32, %struct.mbedtls_mpi, %struct.mbedtls_mpi, %struct.mbedtls_mpi, %struct.mbedtls_ecp_point, %struct.mbedtls_mpi, i64, i64, i32, ptr, ptr, ptr, ptr, ptr, i64 }
%struct.mbedtls_ecp_point = type { %struct.mbedtls_mpi, %struct.mbedtls_mpi, %struct.mbedtls_mpi }
%struct.mbedtls_mpi = type { ptr, i16, i16 }
%struct.mbedtls_ecdh_context = type { i8, i32, i32, %union.anon }
%union.anon = type { %struct.mbedtls_ecdh_context_mbed }
%struct.mbedtls_ecdh_context_mbed = type { %struct.mbedtls_ecp_group, %struct.mbedtls_mpi, %struct.mbedtls_ecp_point, %struct.mbedtls_ecp_point, %struct.mbedtls_mpi }

; Function Attrs: nounwind uwtable
define internal i32 @ecdh_read_public_internal(ptr noundef %0, ptr noundef %1, i64 noundef %2) #0 {
  %4 = alloca i32, align 4
  %5 = alloca ptr, align 8
  %6 = alloca ptr, align 8
  %7 = alloca i64, align 8
  %8 = alloca i32, align 4
  %9 = alloca ptr, align 8
  %10 = alloca i32, align 4
  store ptr %0, ptr %5, align 8, !tbaa !21
  store ptr %1, ptr %6, align 8, !tbaa !25
  store i64 %2, ptr %7, align 8, !tbaa !27
  call void @llvm.lifetime.start.p0(i64 4, ptr %8) #4
  store i32 -110, ptr %8, align 4, !tbaa !3
  call void @llvm.lifetime.start.p0(i64 8, ptr %9) #4
  %11 = load ptr, ptr %6, align 8, !tbaa !25
  store ptr %11, ptr %9, align 8, !tbaa !25
  %12 = load ptr, ptr %5, align 8, !tbaa !21
  %13 = getelementptr inbounds nuw %struct.mbedtls_ecdh_context_mbed, ptr %12, i32 0, i32 0
  %14 = load ptr, ptr %5, align 8, !tbaa !21
  %15 = getelementptr inbounds nuw %struct.mbedtls_ecdh_context_mbed, ptr %14, i32 0, i32 3
  %16 = load i64, ptr %7, align 8, !tbaa !27
  %17 = call i32 @mbedtls_ecp_tls_read_point(ptr noundef %13, ptr noundef %15, ptr noundef %9, i64 noundef %16)
  store i32 %17, ptr %8, align 4, !tbaa !3
  %18 = icmp ne i32 %17, 0
  br i1 %18, label %19, label %21

19:                                               ; preds = %3
  %20 = load i32, ptr %8, align 4, !tbaa !3
  store i32 %20, ptr %4, align 4
  store i32 1, ptr %10, align 4
  br label %31

21:                                               ; preds = %3
  %22 = load ptr, ptr %9, align 8, !tbaa !25
  %23 = load ptr, ptr %6, align 8, !tbaa !25
  %24 = ptrtoint ptr %22 to i64
  %25 = ptrtoint ptr %23 to i64
  %26 = sub i64 %24, %25
  %27 = load i64, ptr %7, align 8, !tbaa !27
  %28 = icmp ne i64 %26, %27
  br i1 %28, label %29, label %30

29:                                               ; preds = %21
  store i32 -20352, ptr %4, align 4
  store i32 1, ptr %10, align 4
  br label %31

30:                                               ; preds = %21
  store i32 0, ptr %4, align 4
  store i32 1, ptr %10, align 4
  br label %31

31:                                               ; preds = %30, %29, %19
  call void @llvm.lifetime.end.p0(i64 8, ptr %9) #4
  call void @llvm.lifetime.end.p0(i64 4, ptr %8) #4
  %32 = load i32, ptr %4, align 4
  ret i32 %32
}

; Function Attrs: nounwind uwtable
define hidden i32 @mbedtls_ecdh_read_public(ptr noundef %0, ptr noundef %1, i64 noundef %2) #0 {
  %4 = alloca i32, align 4
  %5 = alloca ptr, align 8
  %6 = alloca ptr, align 8
  %7 = alloca i64, align 8
  store ptr %0, ptr %5, align 8, !tbaa !15
  store ptr %1, ptr %6, align 8, !tbaa !25
  store i64 %2, ptr %7, align 8, !tbaa !27
  %8 = load ptr, ptr %5, align 8, !tbaa !15
  %9 = getelementptr inbounds nuw %struct.mbedtls_ecdh_context, ptr %8, i32 0, i32 2
  %10 = load i32, ptr %9, align 8, !tbaa !19
  switch i32 %10, label %17 [
    i32 1, label %11
  ]

11:                                               ; preds = %3
  %12 = load ptr, ptr %5, align 8, !tbaa !15
  %13 = getelementptr inbounds nuw %struct.mbedtls_ecdh_context, ptr %12, i32 0, i32 3
  %14 = load ptr, ptr %6, align 8, !tbaa !25
  %15 = load i64, ptr %7, align 8, !tbaa !27
  %16 = call i32 @ecdh_read_public_internal(ptr noundef %13, ptr noundef %14, i64 noundef %15)
  store i32 %16, ptr %4, align 4
  br label %18

17:                                               ; preds = %3
  store i32 -20352, ptr %4, align 4
  br label %18

18:                                               ; preds = %17, %11
  %19 = load i32, ptr %4, align 4
  ret i32 %19
}