; Function Attrs: nounwind uwtable
define hidden i32 @mbedtls_ecdh_read_public(ptr noundef %0, ptr noundef %1, i64 noundef %2) local_unnamed_addr #1 {
  %4 = alloca ptr, align 8
  %5 = getelementptr inbounds nuw i8, ptr %0, i64 8
  %6 = load i32, ptr %5, align 8, !tbaa !9
  %cond = icmp eq i32 %6, 1
  br i1 %cond, label %7, label %15

7:                                                ; preds = %3
  %8 = getelementptr inbounds nuw i8, ptr %0, i64 16
  call void @llvm.lifetime.start.p0(i64 8, ptr nonnull %4) #7
  store ptr %1, ptr %4, align 8, !tbaa !21
  %9 = getelementptr inbounds nuw i8, ptr %0, i64 272
  %10 = call i32 @mbedtls_ecp_tls_read_point(ptr noundef nonnull %8, ptr noundef nonnull %9, ptr noundef nonnull %4, i64 noundef %2) #7
  %.not.i = icmp eq i32 %10, 0
  %11 = load ptr, ptr %4, align 8
  %12 = ptrtoint ptr %11 to i64
  %13 = ptrtoint ptr %1 to i64
  %14 = sub i64 %12, %13
  %.not8.i = icmp eq i64 %14, %2
  %..i = select i1 %.not8.i, i32 0, i32 -20352
  %.0.i = select i1 %.not.i, i32 %..i, i32 %10
  call void @llvm.lifetime.end.p0(i64 8, ptr nonnull %4) #7
  br label %15

15:                                               ; preds = %3, %7
  %.0 = phi i32 [ %.0.i, %7 ], [ -20352, %3 ]
  ret i32 %.0
}